target datalayout = "e-m:e-p270:32:32-p271:32:32-p272:64:64-i64:64-i128:128-f80:128-n8:16:32:64-S128"
target triple = "x86_64-pc-linux-gnu"

%struct._GdkEventButton = type { i32, ptr, i8, i32, double, double, ptr, i32, i32, ptr, double, double }

@.str.257 = private unnamed_addr constant [32 x i8] c"plugins/darkroom/lut3d/def_path\00", align 1
@.str.261 = private unnamed_addr constant [8 x i8] c"$(home)\00", align 1

; Function Attrs: nounwind uwtable
define internal i32 @reset_widget_idm2938(ptr noundef %0, ptr noundef %1, ptr noundef %2) #0 {
  %4 = alloca i32, align 4
  %5 = alloca ptr, align 8
  %6 = alloca ptr, align 8
  %7 = alloca ptr, align 8
  %8 = alloca ptr, align 8
  store ptr %0, ptr %5, align 8, !tbaa !6
  store ptr %1, ptr %6, align 8, !tbaa !64
  store ptr %2, ptr %7, align 8, !tbaa !6
  %9 = load ptr, ptr %6, align 8, !tbaa !64
  %10 = getelementptr inbounds nuw %struct._GdkEventButton, ptr %9, i32 0, i32 0
  %11 = load i32, ptr %10, align 8, !tbaa !66
  %12 = icmp eq i32 %11, 5
  br i1 %12, label %13, label %24

13:                                               ; preds = %3
  call void @llvm.lifetime.start.p0(i64 8, ptr %8) #10
  %14 = call ptr @dt_conf_expand_default_dir(ptr noundef @.str.261)
  store ptr %14, ptr %8, align 8, !tbaa !73
  %15 = load ptr, ptr %8, align 8, !tbaa !73
  call void @dt_conf_set_string(ptr noundef @.str.257, ptr noundef %15)
  %16 = load ptr, ptr %8, align 8, !tbaa !73
  call void @g_free(ptr noundef %16)
  %17 = call ptr @dt_conf_get_string(ptr noundef @.str.257)
  store ptr %17, ptr %8, align 8, !tbaa !73
  %18 = load ptr, ptr %7, align 8, !tbaa !6
  %19 = call i64 @gtk_file_chooser_get_type() #11
  %20 = call ptr @g_type_check_instance_cast(ptr noundef %18, i64 noundef %19)
  %21 = load ptr, ptr %8, align 8, !tbaa !73
  %22 = call i32 @gtk_file_chooser_set_filename(ptr noundef %20, ptr noundef %21)
  %23 = load ptr, ptr %8, align 8, !tbaa !73
  call void @g_free(ptr noundef %23)
  store i32 1, ptr %4, align 4
  call void @llvm.lifetime.end.p0(i64 8, ptr %8) #10
  br label %25

24:                                               ; preds = %3
  store i32 0, ptr %4, align 4
  br label %25

25:                                               ; preds = %24, %13
  %26 = load i32, ptr %4, align 4
  ret i32 %26
}