; Function Attrs: nounwind uwtable
define internal range(i32 0, 2) i32 @reset_widget_idm2938(ptr readnone captures(none) %0, ptr noundef readonly captures(none) %1, ptr noundef %2) #0 {
  %4 = load i32, ptr %1, align 8, !tbaa !54
  %5 = icmp eq i32 %4, 5
  br i1 %5, label %6, label %12

6:                                                ; preds = %3
  %7 = tail call ptr @dt_conf_expand_default_dir(ptr noundef nonnull @.str.261) #12
  tail call void @dt_conf_set_string(ptr noundef nonnull @.str.257, ptr noundef %7) #12
  tail call void @g_free(ptr noundef %7) #12
  %8 = tail call ptr @dt_conf_get_string(ptr noundef nonnull @.str.257) #12
  %9 = tail call i64 @gtk_file_chooser_get_type() #13
  %10 = tail call ptr @g_type_check_instance_cast(ptr noundef %2, i64 noundef %9) #12
  %11 = tail call i32 @gtk_file_chooser_set_filename(ptr noundef %10, ptr noundef %8) #12
  tail call void @g_free(ptr noundef %8) #12
  br label %12

12:                                               ; preds = %3, %6
  %.0 = phi i32 [ 1, %6 ], [ 0, %3 ]
  ret i32 %.0
}